target datalayout = "e-m:e-p270:32:32-p271:32:32-p272:64:64-i64:64-i128:128-f80:128-n8:16:32:64-S128"
target triple = "x86_64-unknown-linux-gnu"

%struct.Chardev = type { %struct.Object, %struct.QemuMutex, ptr, ptr, ptr, i32, i32, i8, ptr, ptr, [1 x i64] }
%struct.Object = type { ptr, ptr, ptr, i32, ptr }
%struct.QemuMutex = type { %union.pthread_mutex_t, i8 }
%union.pthread_mutex_t = type { %struct.__pthread_mutex_s }
%struct.__pthread_mutex_s = type { i32, i32, i32, i32, i32, i16, i16, %struct.__pthread_internal_list }
%struct.__pthread_internal_list = type { ptr, ptr }
%struct.ChardevClass = type { %struct.ObjectClass, i8, i8, ptr, ptr, ptr, ptr, ptr, ptr, ptr, ptr, ptr, ptr, ptr, ptr, ptr, ptr, ptr, ptr }
%struct.ObjectClass = type { ptr, ptr, [4 x ptr], [4 x ptr], ptr, ptr }

@.str.4 = private unnamed_addr constant [8 x i8] c"chardev\00", align 1
@.str.104 = private unnamed_addr constant [101 x i8] c"/home/dtcxzyw/WorkSpace/Projects/compilers/llvm-opt-benchmark/bench/qemu/qemu/include/chardev/char.h\00", align 1
@__func__.CHARDEV_GET_CLASS = private unnamed_addr constant [18 x i8] c"CHARDEV_GET_CLASS\00", align 1

; Function Attrs: nounwind sspstrong uwtable
define internal ptr @CHARDEV_GET_CLASS(ptr noundef %obj) #0 {
entry:
  %obj.addr = alloca ptr, align 8
  store ptr %obj, ptr %obj.addr, align 8
  %0 = load ptr, ptr %obj.addr, align 8
  %call = call ptr @object_get_class(ptr noundef %0)
  %call1 = call ptr @object_class_dynamic_cast_assert(ptr noundef %call, ptr noundef @.str.4, ptr noundef @.str.104, i32 noundef 231, ptr noundef @__func__.CHARDEV_GET_CLASS)
  ret ptr %call1
}

; Function Attrs: nounwind sspstrong uwtable
define dso_local void @qemu_chr_be_event(ptr noundef %s, i32 noundef %event) #0 {
entry:
  %s.addr = alloca ptr, align 8
  %event.addr = alloca i32, align 4
  store ptr %s, ptr %s.addr, align 8
  store i32 %event, ptr %event.addr, align 4
  %0 = load i32, ptr %event.addr, align 4
  switch i32 %0, label %sw.epilog [
    i32 1, label %sw.bb
    i32 4, label %sw.bb1
    i32 0, label %sw.bb3
    i32 2, label %sw.bb3
    i32 3, label %sw.bb3
  ]

sw.bb:                                            ; preds = %entry
  %1 = load ptr, ptr %s.addr, align 8
  %be_open = getelementptr inbounds %struct.Chardev, ptr %1, i32 0, i32 6
  store i32 1, ptr %be_open, align 4
  br label %sw.epilog

sw.bb1:                                           ; preds = %entry
  %2 = load ptr, ptr %s.addr, align 8
  %be_open2 = getelementptr inbounds %struct.Chardev, ptr %2, i32 0, i32 6
  store i32 0, ptr %be_open2, align 4
  br label %sw.epilog

sw.bb3:                                           ; preds = %entry, %entry, %entry
  br label %sw.epilog

sw.epilog:                                        ; preds = %sw.bb3, %sw.bb1, %sw.bb, %entry
  %3 = load ptr, ptr %s.addr, align 8
  %call = call ptr @CHARDEV_GET_CLASS(ptr noundef %3)
  %chr_be_event = getelementptr inbounds %struct.ChardevClass, ptr %call, i32 0, i32 18
  %4 = load ptr, ptr %chr_be_event, align 8
  %5 = load ptr, ptr %s.addr, align 8
  %6 = load i32, ptr %event.addr, align 4
  call void %4(ptr noundef %5, i32 noundef %6)
  ret void
}