; Function Attrs: nounwind sspstrong uwtable
define dso_local void @qemu_chr_be_event(ptr noundef %s, i32 noundef %event) local_unnamed_addr #0 {
entry:
  switch i32 %event, label %sw.epilog [
    i32 1, label %sw.epilog.sink.split
    i32 4, label %sw.bb1
  ]

sw.bb1:                                           ; preds = %entry
  br label %sw.epilog.sink.split

sw.epilog.sink.split:                             ; preds = %entry, %sw.bb1
  %.sink = phi i32 [ 0, %sw.bb1 ], [ %event, %entry ]
  %be_open2 = getelementptr inbounds nuw i8, ptr %s, i64 116
  store i32 %.sink, ptr %be_open2, align 4
  br label %sw.epilog

sw.epilog:                                        ; preds = %sw.epilog.sink.split, %entry
  %call.i = tail call ptr @object_get_class(ptr noundef %s) #13
  %call1.i = tail call ptr @object_class_dynamic_cast_assert(ptr noundef %call.i, ptr noundef nonnull @.str.4, ptr noundef nonnull @.str.104, i32 noundef 231, ptr noundef nonnull @__func__.CHARDEV_GET_CLASS) #13
  %chr_be_event = getelementptr inbounds nuw i8, ptr %call1.i, i64 224
  %0 = load ptr, ptr %chr_be_event, align 8
  tail call void %0(ptr noundef %s, i32 noundef %event) #13
  ret void
}